; Function Attrs: nounwind uwtable
define ptr @l_Lean_Server_ModuleRefs_addRef(ptr noundef %0, ptr noundef %1) local_unnamed_addr #0 {
  %3 = getelementptr inbounds nuw i8, ptr %1, i64 8
  %4 = load ptr, ptr %3, align 8, !tbaa !4
  %5 = ptrtoint ptr %4 to i64
  %6 = and i64 %5, 1
  %.not = icmp eq i64 %6, 0
  br i1 %.not, label %7, label %lean_inc.exit

7:                                                ; preds = %2
  %.val.i = load i32, ptr %4, align 4, !tbaa !8
  %8 = icmp sgt i32 %.val.i, 0
  br i1 %8, label %9, label %11, !prof !11

9:                                                ; preds = %7
  %10 = add nuw i32 %.val.i, 1
  store i32 %10, ptr %4, align 4, !tbaa !8
  br label %lean_inc.exit

11:                                               ; preds = %7
  %.not.i = icmp eq i32 %.val.i, 0
  br i1 %.not.i, label %lean_inc.exit, label %12

12:                                               ; preds = %11
  tail call void @lean_inc_ref_cold(ptr noundef nonnull %4) #8
  br label %lean_inc.exit

lean_inc.exit:                                    ; preds = %12, %11, %9, %2
  %13 = load ptr, ptr @l_Lean_Server_RefInfo_empty, align 8, !tbaa !4
  %14 = tail call ptr @l_Std_DTreeMap_Internal_Impl_Const_getD___at_Lean_Server_ModuleRefs_addRef___spec__1(ptr noundef %0, ptr noundef %4, ptr noundef %13)
  %15 = tail call ptr @l_Lean_Server_RefInfo_addRef(ptr noundef %14, ptr noundef nonnull %1)
  %16 = tail call ptr @l_Std_DTreeMap_Internal_Impl_insert___at_Lean_Server_ModuleRefs_addRef___spec__2(ptr noundef %4, ptr noundef %15, ptr noundef %0, ptr nonnull poison)
  ret ptr %16
}